target datalayout = "e-m:e-p270:32:32-p271:32:32-p272:64:64-i64:64-i128:128-f80:128-n8:16:32:64-S128"
target triple = "x86_64-pc-linux-gnu"

%struct._zval_struct = type { %union._zend_value, %union.anon, %union.anon.2 }
%union._zend_value = type { i64 }
%union.anon = type { i32 }
%union.anon.2 = type { i32 }
%struct._zend_refcounted_h = type { i32, %union.anon.6 }
%union.anon.6 = type { i32 }
%struct.zend_get_gc_buffer = type { ptr, ptr, ptr }
%struct._zend_object = type { %struct._zend_refcounted_h, i32, i32, ptr, ptr, ptr, [1 x %struct._zval_struct] }
%struct._pdo_dbh_t = type { ptr, ptr, ptr, ptr, i32, ptr, i64, [6 x i8], i32, i32, i32, ptr, i64, i32, [2 x ptr], ptr, ptr, %struct._zval_struct, ptr, ptr, i32 }
%struct.pdo_dbh_methods = type { ptr, ptr, ptr, ptr, ptr, ptr, ptr, ptr, ptr, ptr, ptr, ptr, ptr, ptr, ptr, ptr, ptr }
%struct.anon.0 = type { i8, i8, %union.anon.1 }
%union.anon.1 = type { i16 }
%struct._pdo_dbh_object_t = type { ptr, %struct._zend_object }

; Function Attrs: alwaysinline nounwind uwtable
define internal void @zend_get_gc_buffer_use(ptr noundef %0, ptr noundef %1, ptr noundef %2) #3 {
  %4 = alloca ptr, align 8
  %5 = alloca ptr, align 8
  %6 = alloca ptr, align 8
  store ptr %0, ptr %4, align 8, !tbaa !76
  store ptr %1, ptr %5, align 8, !tbaa !110
  store ptr %2, ptr %6, align 8, !tbaa !207
  %7 = load ptr, ptr %4, align 8, !tbaa !76
  %8 = getelementptr inbounds nuw %struct.zend_get_gc_buffer, ptr %7, i32 0, i32 2
  %9 = load ptr, ptr %8, align 8, !tbaa !215
  %10 = load ptr, ptr %5, align 8, !tbaa !110
  store ptr %9, ptr %10, align 8, !tbaa !13
  %11 = load ptr, ptr %4, align 8, !tbaa !76
  %12 = getelementptr inbounds nuw %struct.zend_get_gc_buffer, ptr %11, i32 0, i32 0
  %13 = load ptr, ptr %12, align 8, !tbaa !213
  %14 = load ptr, ptr %4, align 8, !tbaa !76
  %15 = getelementptr inbounds nuw %struct.zend_get_gc_buffer, ptr %14, i32 0, i32 2
  %16 = load ptr, ptr %15, align 8, !tbaa !215
  %17 = ptrtoint ptr %13 to i64
  %18 = ptrtoint ptr %16 to i64
  %19 = sub i64 %17, %18
  %20 = sdiv exact i64 %19, 16
  %21 = trunc i64 %20 to i32
  %22 = load ptr, ptr %6, align 8, !tbaa !207
  store i32 %21, ptr %22, align 4, !tbaa !4
  ret void
}

; Function Attrs: alwaysinline nounwind uwtable
define internal void @zend_get_gc_buffer_add_zval(ptr noundef %0, ptr noundef %1) #3 {
  %3 = alloca ptr, align 8
  %4 = alloca ptr, align 8
  %5 = alloca ptr, align 8
  %6 = alloca ptr, align 8
  %7 = alloca ptr, align 8
  %8 = alloca i32, align 4
  store ptr %0, ptr %3, align 8, !tbaa !76
  store ptr %1, ptr %4, align 8, !tbaa !13
  %9 = load ptr, ptr %4, align 8, !tbaa !13
  %10 = getelementptr inbounds nuw %struct._zval_struct, ptr %9, i32 0, i32 1
  %11 = getelementptr inbounds nuw %struct.anon.0, ptr %10, i32 0, i32 1
  %12 = load i8, ptr %11, align 1, !tbaa !15
  %13 = zext i8 %12 to i32
  %14 = icmp ne i32 %13, 0
  br i1 %14, label %15, label %57

15:                                               ; preds = %2
  %16 = load ptr, ptr %3, align 8, !tbaa !76
  %17 = getelementptr inbounds nuw %struct.zend_get_gc_buffer, ptr %16, i32 0, i32 0
  %18 = load ptr, ptr %17, align 8, !tbaa !213
  %19 = load ptr, ptr %3, align 8, !tbaa !76
  %20 = getelementptr inbounds nuw %struct.zend_get_gc_buffer, ptr %19, i32 0, i32 1
  %21 = load ptr, ptr %20, align 8, !tbaa !214
  %22 = icmp eq ptr %18, %21
  %23 = xor i1 %22, true
  %24 = xor i1 %23, true
  %25 = zext i1 %24 to i32
  %26 = sext i32 %25 to i64
  %27 = call i64 @llvm.expect.i64(i64 %26, i64 0)
  %28 = icmp ne i64 %27, 0
  br i1 %28, label %29, label %31

29:                                               ; preds = %15
  %30 = load ptr, ptr %3, align 8, !tbaa !76
  call void @zend_get_gc_buffer_grow(ptr noundef %30)
  br label %31

31:                                               ; preds = %29, %15
  br label %32

32:                                               ; preds = %31
  call void @llvm.lifetime.start.p0(i64 8, ptr %5) #14
  %33 = load ptr, ptr %3, align 8, !tbaa !76
  %34 = getelementptr inbounds nuw %struct.zend_get_gc_buffer, ptr %33, i32 0, i32 0
  %35 = load ptr, ptr %34, align 8, !tbaa !213
  store ptr %35, ptr %5, align 8, !tbaa !13
  call void @llvm.lifetime.start.p0(i64 8, ptr %6) #14
  %36 = load ptr, ptr %4, align 8, !tbaa !13
  store ptr %36, ptr %6, align 8, !tbaa !13
  call void @llvm.lifetime.start.p0(i64 8, ptr %7) #14
  %37 = load ptr, ptr %6, align 8, !tbaa !13
  %38 = getelementptr inbounds nuw %struct._zval_struct, ptr %37, i32 0, i32 0
  %39 = load ptr, ptr %38, align 8, !tbaa !15
  store ptr %39, ptr %7, align 8, !tbaa !131
  call void @llvm.lifetime.start.p0(i64 4, ptr %8) #14
  %40 = load ptr, ptr %6, align 8, !tbaa !13
  %41 = getelementptr inbounds nuw %struct._zval_struct, ptr %40, i32 0, i32 1
  %42 = load i32, ptr %41, align 8, !tbaa !15
  store i32 %42, ptr %8, align 4, !tbaa !4
  br label %43

43:                                               ; preds = %32
  %44 = load ptr, ptr %7, align 8, !tbaa !131
  %45 = load ptr, ptr %5, align 8, !tbaa !13
  %46 = getelementptr inbounds nuw %struct._zval_struct, ptr %45, i32 0, i32 0
  store ptr %44, ptr %46, align 8, !tbaa !15
  %47 = load i32, ptr %8, align 4, !tbaa !4
  %48 = load ptr, ptr %5, align 8, !tbaa !13
  %49 = getelementptr inbounds nuw %struct._zval_struct, ptr %48, i32 0, i32 1
  store i32 %47, ptr %49, align 8, !tbaa !15
  br label %50

50:                                               ; preds = %43
  br label %51

51:                                               ; preds = %50
  call void @llvm.lifetime.end.p0(i64 4, ptr %8) #14
  call void @llvm.lifetime.end.p0(i64 8, ptr %7) #14
  call void @llvm.lifetime.end.p0(i64 8, ptr %6) #14
  call void @llvm.lifetime.end.p0(i64 8, ptr %5) #14
  br label %52

52:                                               ; preds = %51
  %53 = load ptr, ptr %3, align 8, !tbaa !76
  %54 = getelementptr inbounds nuw %struct.zend_get_gc_buffer, ptr %53, i32 0, i32 0
  %55 = load ptr, ptr %54, align 8, !tbaa !213
  %56 = getelementptr inbounds nuw %struct._zval_struct, ptr %55, i32 1
  store ptr %56, ptr %54, align 8, !tbaa !213
  br label %57

57:                                               ; preds = %52, %2
  ret void
}

; Function Attrs: inlinehint nounwind uwtable
define internal ptr @php_pdo_dbh_fetch_inner(ptr noundef %0) #8 {
  %2 = alloca ptr, align 8
  store ptr %0, ptr %2, align 8, !tbaa !62
  %3 = load ptr, ptr %2, align 8, !tbaa !62
  %4 = getelementptr inbounds i8, ptr %3, i64 -8
  %5 = getelementptr inbounds nuw %struct._pdo_dbh_object_t, ptr %4, i32 0, i32 0
  %6 = load ptr, ptr %5, align 8, !tbaa !91
  ret ptr %6
}

; Function Attrs: nounwind uwtable
define internal ptr @dbh_get_gc(ptr noundef %0, ptr noundef %1, ptr noundef %2) #0 {
  %4 = alloca ptr, align 8
  %5 = alloca ptr, align 8
  %6 = alloca ptr, align 8
  %7 = alloca ptr, align 8
  %8 = alloca ptr, align 8
  store ptr %0, ptr %4, align 8, !tbaa !62
  store ptr %1, ptr %5, align 8, !tbaa !110
  store ptr %2, ptr %6, align 8, !tbaa !207
  call void @llvm.lifetime.start.p0(i64 8, ptr %7) #14
  %9 = load ptr, ptr %4, align 8, !tbaa !62
  %10 = call ptr @php_pdo_dbh_fetch_inner(ptr noundef %9)
  store ptr %10, ptr %7, align 8, !tbaa !63
  call void @llvm.lifetime.start.p0(i64 8, ptr %8) #14
  %11 = call ptr @zend_get_gc_buffer_create()
  store ptr %11, ptr %8, align 8, !tbaa !76
  %12 = load ptr, ptr %8, align 8, !tbaa !76
  %13 = load ptr, ptr %7, align 8, !tbaa !63
  %14 = getelementptr inbounds nuw %struct._pdo_dbh_t, ptr %13, i32 0, i32 17
  call void @zend_get_gc_buffer_add_zval(ptr noundef %12, ptr noundef %14)
  %15 = load ptr, ptr %7, align 8, !tbaa !63
  %16 = getelementptr inbounds nuw %struct._pdo_dbh_t, ptr %15, i32 0, i32 0
  %17 = load ptr, ptr %16, align 8, !tbaa !69
  %18 = icmp ne ptr %17, null
  br i1 %18, label %19, label %34

19:                                               ; preds = %3
  %20 = load ptr, ptr %7, align 8, !tbaa !63
  %21 = getelementptr inbounds nuw %struct._pdo_dbh_t, ptr %20, i32 0, i32 0
  %22 = load ptr, ptr %21, align 8, !tbaa !69
  %23 = getelementptr inbounds nuw %struct.pdo_dbh_methods, ptr %22, i32 0, i32 15
  %24 = load ptr, ptr %23, align 8, !tbaa !209
  %25 = icmp ne ptr %24, null
  br i1 %25, label %26, label %34

26:                                               ; preds = %19
  %27 = load ptr, ptr %7, align 8, !tbaa !63
  %28 = getelementptr inbounds nuw %struct._pdo_dbh_t, ptr %27, i32 0, i32 0
  %29 = load ptr, ptr %28, align 8, !tbaa !69
  %30 = getelementptr inbounds nuw %struct.pdo_dbh_methods, ptr %29, i32 0, i32 15
  %31 = load ptr, ptr %30, align 8, !tbaa !209
  %32 = load ptr, ptr %7, align 8, !tbaa !63
  %33 = load ptr, ptr %8, align 8, !tbaa !76
  call void %31(ptr noundef %32, ptr noundef %33)
  br label %34

34:                                               ; preds = %26, %19, %3
  %35 = load ptr, ptr %8, align 8, !tbaa !76
  %36 = load ptr, ptr %5, align 8, !tbaa !110
  %37 = load ptr, ptr %6, align 8, !tbaa !207
  call void @zend_get_gc_buffer_use(ptr noundef %35, ptr noundef %36, ptr noundef %37)
  %38 = load ptr, ptr %4, align 8, !tbaa !62
  %39 = call ptr @zend_std_get_properties(ptr noundef %38)
  call void @llvm.lifetime.end.p0(i64 8, ptr %8) #14
  call void @llvm.lifetime.end.p0(i64 8, ptr %7) #14
  ret ptr %39
}