; Function Attrs: nounwind uwtable
define internal ptr @dbh_get_gc(ptr noundef %0, ptr noundef writeonly captures(none) initializes((0, 8)) %1, ptr noundef writeonly captures(none) initializes((0, 4)) %2) #0 {
  %4 = getelementptr i8, ptr %0, i64 -8
  %.val = load ptr, ptr %4, align 8, !tbaa !90
  %5 = tail call ptr @zend_get_gc_buffer_create() #13
  %6 = getelementptr inbounds nuw i8, ptr %.val, i64 136
  %7 = getelementptr inbounds nuw i8, ptr %.val, i64 144
  %8 = getelementptr inbounds nuw i8, ptr %.val, i64 145
  %9 = load i8, ptr %8, align 1, !tbaa !4
  %.not.i = icmp eq i8 %9, 0
  br i1 %.not.i, label %zend_get_gc_buffer_add_zval.exit, label %10

10:                                               ; preds = %3
  %11 = load ptr, ptr %5, align 8, !tbaa !195
  %12 = getelementptr inbounds nuw i8, ptr %5, i64 8
  %13 = load ptr, ptr %12, align 8, !tbaa !196
  %14 = icmp eq ptr %11, %13
  br i1 %14, label %15, label %16, !prof !68

15:                                               ; preds = %10
  tail call void @zend_get_gc_buffer_grow(ptr noundef nonnull %5) #13
  %.pre = load ptr, ptr %5, align 8, !tbaa !195
  br label %16

16:                                               ; preds = %15, %10
  %17 = phi ptr [ %.pre, %15 ], [ %11, %10 ]
  %18 = load ptr, ptr %6, align 8, !tbaa !4
  %19 = load i32, ptr %7, align 8, !tbaa !4
  store ptr %18, ptr %17, align 8, !tbaa !4
  %20 = getelementptr inbounds nuw i8, ptr %17, i64 8
  store i32 %19, ptr %20, align 8, !tbaa !4
  %21 = load ptr, ptr %5, align 8, !tbaa !195
  %22 = getelementptr inbounds nuw i8, ptr %21, i64 16
  store ptr %22, ptr %5, align 8, !tbaa !195
  br label %zend_get_gc_buffer_add_zval.exit

zend_get_gc_buffer_add_zval.exit:                 ; preds = %3, %16
  %23 = load ptr, ptr %.val, align 8, !tbaa !59
  %.not = icmp eq ptr %23, null
  br i1 %.not, label %28, label %24

24:                                               ; preds = %zend_get_gc_buffer_add_zval.exit
  %25 = getelementptr inbounds nuw i8, ptr %23, i64 120
  %26 = load ptr, ptr %25, align 8, !tbaa !197
  %.not13 = icmp eq ptr %26, null
  br i1 %.not13, label %28, label %27

27:                                               ; preds = %24
  tail call void %26(ptr noundef nonnull %.val, ptr noundef %5) #13
  br label %28

28:                                               ; preds = %27, %24, %zend_get_gc_buffer_add_zval.exit
  %29 = getelementptr inbounds nuw i8, ptr %5, i64 16
  %30 = load ptr, ptr %29, align 8, !tbaa !198
  store ptr %30, ptr %1, align 8, !tbaa !138
  %31 = load ptr, ptr %5, align 8, !tbaa !195
  %32 = ptrtoint ptr %31 to i64
  %33 = ptrtoint ptr %30 to i64
  %34 = sub i64 %32, %33
  %35 = lshr exact i64 %34, 4
  %36 = trunc i64 %35 to i32
  store i32 %36, ptr %2, align 4, !tbaa !139
  %37 = tail call ptr @zend_std_get_properties(ptr noundef nonnull %0) #13
  ret ptr %37
}